target datalayout = "e-m:e-p270:32:32-p271:32:32-p272:64:64-i64:64-i128:128-f80:128-n8:16:32:64-S128"
target triple = "x86_64-pc-linux-gnu"

; Function Attrs: inlinehint nounwind uwtable
define internal i32 @toLitCond(i32 noundef %0, i32 noundef %1) #3 {
  %3 = alloca i32, align 4
  %4 = alloca i32, align 4
  store i32 %0, ptr %3, align 4, !tbaa !3
  store i32 %1, ptr %4, align 4, !tbaa !3
  %5 = load i32, ptr %3, align 4, !tbaa !3
  %6 = load i32, ptr %3, align 4, !tbaa !3
  %7 = add nsw i32 %5, %6
  %8 = load i32, ptr %4, align 4, !tbaa !3
  %9 = icmp ne i32 %8, 0
  %10 = zext i1 %9 to i32
  %11 = add nsw i32 %7, %10
  ret i32 %11
}

; Function Attrs: inlinehint nounwind uwtable
define internal i32 @sat_solver_add_mux(ptr noundef %0, i32 noundef %1, i32 noundef %2, i32 noundef %3, i32 noundef %4, i32 noundef %5, i32 noundef %6, i32 noundef %7, i32 noundef %8) #3 {
  %10 = alloca i32, align 4
  %11 = alloca ptr, align 8
  %12 = alloca i32, align 4
  %13 = alloca i32, align 4
  %14 = alloca i32, align 4
  %15 = alloca i32, align 4
  %16 = alloca i32, align 4
  %17 = alloca i32, align 4
  %18 = alloca i32, align 4
  %19 = alloca i32, align 4
  %20 = alloca [3 x i32], align 4
  %21 = alloca i32, align 4
  %22 = alloca i32, align 4
  store ptr %0, ptr %11, align 8, !tbaa !7
  store i32 %1, ptr %12, align 4, !tbaa !3
  store i32 %2, ptr %13, align 4, !tbaa !3
  store i32 %3, ptr %14, align 4, !tbaa !3
  store i32 %4, ptr %15, align 4, !tbaa !3
  store i32 %5, ptr %16, align 4, !tbaa !3
  store i32 %6, ptr %17, align 4, !tbaa !3
  store i32 %7, ptr %18, align 4, !tbaa !3
  store i32 %8, ptr %19, align 4, !tbaa !3
  call void @llvm.lifetime.start.p0(i64 12, ptr %20) #7
  call void @llvm.lifetime.start.p0(i64 4, ptr %21) #7
  %23 = load i32, ptr %13, align 4, !tbaa !3
  %24 = load i32, ptr %16, align 4, !tbaa !3
  %25 = xor i32 1, %24
  %26 = call i32 @toLitCond(i32 noundef %23, i32 noundef %25)
  %27 = getelementptr inbounds [3 x i32], ptr %20, i64 0, i64 0
  store i32 %26, ptr %27, align 4, !tbaa !3
  %28 = load i32, ptr %14, align 4, !tbaa !3
  %29 = load i32, ptr %17, align 4, !tbaa !3
  %30 = xor i32 1, %29
  %31 = call i32 @toLitCond(i32 noundef %28, i32 noundef %30)
  %32 = getelementptr inbounds [3 x i32], ptr %20, i64 0, i64 1
  store i32 %31, ptr %32, align 4, !tbaa !3
  %33 = load i32, ptr %12, align 4, !tbaa !3
  %34 = call i32 @toLitCond(i32 noundef %33, i32 noundef 0)
  %35 = getelementptr inbounds [3 x i32], ptr %20, i64 0, i64 2
  store i32 %34, ptr %35, align 4, !tbaa !3
  %36 = load ptr, ptr %11, align 8, !tbaa !7
  %37 = getelementptr inbounds [3 x i32], ptr %20, i64 0, i64 0
  %38 = getelementptr inbounds [3 x i32], ptr %20, i64 0, i64 0
  %39 = getelementptr inbounds i32, ptr %38, i64 3
  %40 = call i32 @sat_solver_addclause(ptr noundef %36, ptr noundef %37, ptr noundef %39)
  store i32 %40, ptr %21, align 4, !tbaa !3
  %41 = load i32, ptr %13, align 4, !tbaa !3
  %42 = load i32, ptr %16, align 4, !tbaa !3
  %43 = xor i32 1, %42
  %44 = call i32 @toLitCond(i32 noundef %41, i32 noundef %43)
  %45 = getelementptr inbounds [3 x i32], ptr %20, i64 0, i64 0
  store i32 %44, ptr %45, align 4, !tbaa !3
  %46 = load i32, ptr %14, align 4, !tbaa !3
  %47 = load i32, ptr %17, align 4, !tbaa !3
  %48 = xor i32 0, %47
  %49 = call i32 @toLitCond(i32 noundef %46, i32 noundef %48)
  %50 = getelementptr inbounds [3 x i32], ptr %20, i64 0, i64 1
  store i32 %49, ptr %50, align 4, !tbaa !3
  %51 = load i32, ptr %12, align 4, !tbaa !3
  %52 = load i32, ptr %19, align 4, !tbaa !3
  %53 = xor i32 1, %52
  %54 = call i32 @toLitCond(i32 noundef %51, i32 noundef %53)
  %55 = getelementptr inbounds [3 x i32], ptr %20, i64 0, i64 2
  store i32 %54, ptr %55, align 4, !tbaa !3
  %56 = load ptr, ptr %11, align 8, !tbaa !7
  %57 = getelementptr inbounds [3 x i32], ptr %20, i64 0, i64 0
  %58 = getelementptr inbounds [3 x i32], ptr %20, i64 0, i64 0
  %59 = getelementptr inbounds i32, ptr %58, i64 3
  %60 = call i32 @sat_solver_addclause(ptr noundef %56, ptr noundef %57, ptr noundef %59)
  store i32 %60, ptr %21, align 4, !tbaa !3
  %61 = load i32, ptr %13, align 4, !tbaa !3
  %62 = load i32, ptr %16, align 4, !tbaa !3
  %63 = xor i32 0, %62
  %64 = call i32 @toLitCond(i32 noundef %61, i32 noundef %63)
  %65 = getelementptr inbounds [3 x i32], ptr %20, i64 0, i64 0
  store i32 %64, ptr %65, align 4, !tbaa !3
  %66 = load i32, ptr %15, align 4, !tbaa !3
  %67 = load i32, ptr %18, align 4, !tbaa !3
  %68 = xor i32 1, %67
  %69 = call i32 @toLitCond(i32 noundef %66, i32 noundef %68)
  %70 = getelementptr inbounds [3 x i32], ptr %20, i64 0, i64 1
  store i32 %69, ptr %70, align 4, !tbaa !3
  %71 = load i32, ptr %12, align 4, !tbaa !3
  %72 = load i32, ptr %19, align 4, !tbaa !3
  %73 = xor i32 0, %72
  %74 = call i32 @toLitCond(i32 noundef %71, i32 noundef %73)
  %75 = getelementptr inbounds [3 x i32], ptr %20, i64 0, i64 2
  store i32 %74, ptr %75, align 4, !tbaa !3
  %76 = load ptr, ptr %11, align 8, !tbaa !7
  %77 = getelementptr inbounds [3 x i32], ptr %20, i64 0, i64 0
  %78 = getelementptr inbounds [3 x i32], ptr %20, i64 0, i64 0
  %79 = getelementptr inbounds i32, ptr %78, i64 3
  %80 = call i32 @sat_solver_addclause(ptr noundef %76, ptr noundef %77, ptr noundef %79)
  store i32 %80, ptr %21, align 4, !tbaa !3
  %81 = load i32, ptr %13, align 4, !tbaa !3
  %82 = load i32, ptr %16, align 4, !tbaa !3
  %83 = xor i32 0, %82
  %84 = call i32 @toLitCond(i32 noundef %81, i32 noundef %83)
  %85 = getelementptr inbounds [3 x i32], ptr %20, i64 0, i64 0
  store i32 %84, ptr %85, align 4, !tbaa !3
  %86 = load i32, ptr %15, align 4, !tbaa !3
  %87 = load i32, ptr %18, align 4, !tbaa !3
  %88 = xor i32 0, %87
  %89 = call i32 @toLitCond(i32 noundef %86, i32 noundef %88)
  %90 = getelementptr inbounds [3 x i32], ptr %20, i64 0, i64 1
  store i32 %89, ptr %90, align 4, !tbaa !3
  %91 = load i32, ptr %12, align 4, !tbaa !3
  %92 = load i32, ptr %19, align 4, !tbaa !3
  %93 = xor i32 1, %92
  %94 = call i32 @toLitCond(i32 noundef %91, i32 noundef %93)
  %95 = getelementptr inbounds [3 x i32], ptr %20, i64 0, i64 2
  store i32 %94, ptr %95, align 4, !tbaa !3
  %96 = load ptr, ptr %11, align 8, !tbaa !7
  %97 = getelementptr inbounds [3 x i32], ptr %20, i64 0, i64 0
  %98 = getelementptr inbounds [3 x i32], ptr %20, i64 0, i64 0
  %99 = getelementptr inbounds i32, ptr %98, i64 3
  %100 = call i32 @sat_solver_addclause(ptr noundef %96, ptr noundef %97, ptr noundef %99)
  store i32 %100, ptr %21, align 4, !tbaa !3
  %101 = load i32, ptr %14, align 4, !tbaa !3
  %102 = load i32, ptr %15, align 4, !tbaa !3
  %103 = icmp eq i32 %101, %102
  br i1 %103, label %104, label %105

104:                                              ; preds = %9
  store i32 4, ptr %10, align 4
  store i32 1, ptr %22, align 4
  br label %146

105:                                              ; preds = %9
  %106 = load i32, ptr %14, align 4, !tbaa !3
  %107 = load i32, ptr %17, align 4, !tbaa !3
  %108 = xor i32 0, %107
  %109 = call i32 @toLitCond(i32 noundef %106, i32 noundef %108)
  %110 = getelementptr inbounds [3 x i32], ptr %20, i64 0, i64 0
  store i32 %109, ptr %110, align 4, !tbaa !3
  %111 = load i32, ptr %15, align 4, !tbaa !3
  %112 = load i32, ptr %18, align 4, !tbaa !3
  %113 = xor i32 0, %112
  %114 = call i32 @toLitCond(i32 noundef %111, i32 noundef %113)
  %115 = getelementptr inbounds [3 x i32], ptr %20, i64 0, i64 1
  store i32 %114, ptr %115, align 4, !tbaa !3
  %116 = load i32, ptr %12, align 4, !tbaa !3
  %117 = load i32, ptr %19, align 4, !tbaa !3
  %118 = xor i32 1, %117
  %119 = call i32 @toLitCond(i32 noundef %116, i32 noundef %118)
  %120 = getelementptr inbounds [3 x i32], ptr %20, i64 0, i64 2
  store i32 %119, ptr %120, align 4, !tbaa !3
  %121 = load ptr, ptr %11, align 8, !tbaa !7
  %122 = getelementptr inbounds [3 x i32], ptr %20, i64 0, i64 0
  %123 = getelementptr inbounds [3 x i32], ptr %20, i64 0, i64 0
  %124 = getelementptr inbounds i32, ptr %123, i64 3
  %125 = call i32 @sat_solver_addclause(ptr noundef %121, ptr noundef %122, ptr noundef %124)
  store i32 %125, ptr %21, align 4, !tbaa !3
  %126 = load i32, ptr %14, align 4, !tbaa !3
  %127 = load i32, ptr %17, align 4, !tbaa !3
  %128 = xor i32 1, %127
  %129 = call i32 @toLitCond(i32 noundef %126, i32 noundef %128)
  %130 = getelementptr inbounds [3 x i32], ptr %20, i64 0, i64 0
  store i32 %129, ptr %130, align 4, !tbaa !3
  %131 = load i32, ptr %15, align 4, !tbaa !3
  %132 = load i32, ptr %18, align 4, !tbaa !3
  %133 = xor i32 1, %132
  %134 = call i32 @toLitCond(i32 noundef %131, i32 noundef %133)
  %135 = getelementptr inbounds [3 x i32], ptr %20, i64 0, i64 1
  store i32 %134, ptr %135, align 4, !tbaa !3
  %136 = load i32, ptr %12, align 4, !tbaa !3
  %137 = load i32, ptr %19, align 4, !tbaa !3
  %138 = xor i32 0, %137
  %139 = call i32 @toLitCond(i32 noundef %136, i32 noundef %138)
  %140 = getelementptr inbounds [3 x i32], ptr %20, i64 0, i64 2
  store i32 %139, ptr %140, align 4, !tbaa !3
  %141 = load ptr, ptr %11, align 8, !tbaa !7
  %142 = getelementptr inbounds [3 x i32], ptr %20, i64 0, i64 0
  %143 = getelementptr inbounds [3 x i32], ptr %20, i64 0, i64 0
  %144 = getelementptr inbounds i32, ptr %143, i64 3
  %145 = call i32 @sat_solver_addclause(ptr noundef %141, ptr noundef %142, ptr noundef %144)
  store i32 %145, ptr %21, align 4, !tbaa !3
  store i32 6, ptr %10, align 4
  store i32 1, ptr %22, align 4
  br label %146

146:                                              ; preds = %105, %104
  call void @llvm.lifetime.end.p0(i64 4, ptr %21) #7
  call void @llvm.lifetime.end.p0(i64 12, ptr %20) #7
  %147 = load i32, ptr %10, align 4
  ret i32 %147
}

; Function Attrs: nounwind uwtable
define ptr @If_ManSatBuildXY(i32 noundef %0) #0 {
  %2 = alloca i32, align 4
  %3 = alloca i32, align 4
  %4 = alloca i32, align 4
  %5 = alloca i32, align 4
  %6 = alloca i32, align 4
  %7 = alloca i32, align 4
  %8 = alloca i32, align 4
  %9 = alloca i32, align 4
  %10 = alloca ptr, align 8
  store i32 %0, ptr %2, align 4, !tbaa !3
  call void @llvm.lifetime.start.p0(i64 4, ptr %3) #7
  %11 = load i32, ptr %2, align 4, !tbaa !3
  %12 = shl i32 1, %11
  store i32 %12, ptr %3, align 4, !tbaa !3
  call void @llvm.lifetime.start.p0(i64 4, ptr %4) #7
  %13 = load i32, ptr %2, align 4, !tbaa !3
  %14 = mul nsw i32 2, %13
  %15 = sub nsw i32 %14, 1
  %16 = shl i32 1, %15
  store i32 %16, ptr %4, align 4, !tbaa !3
  call void @llvm.lifetime.start.p0(i64 4, ptr %5) #7
  %17 = load i32, ptr %3, align 4, !tbaa !3
  %18 = mul nsw i32 2, %17
  %19 = load i32, ptr %4, align 4, !tbaa !3
  %20 = add nsw i32 %18, %19
  store i32 %20, ptr %5, align 4, !tbaa !3
  call void @llvm.lifetime.start.p0(i64 4, ptr %6) #7
  store i32 0, ptr %6, align 4, !tbaa !3
  call void @llvm.lifetime.start.p0(i64 4, ptr %7) #7
  %21 = load i32, ptr %3, align 4, !tbaa !3
  store i32 %21, ptr %7, align 4, !tbaa !3
  call void @llvm.lifetime.start.p0(i64 4, ptr %8) #7
  call void @llvm.lifetime.start.p0(i64 4, ptr %9) #7
  %22 = load i32, ptr %3, align 4, !tbaa !3
  %23 = mul nsw i32 2, %22
  store i32 %23, ptr %9, align 4, !tbaa !3
  call void @llvm.lifetime.start.p0(i64 8, ptr %10) #7
  %24 = call ptr @sat_solver_new()
  store ptr %24, ptr %10, align 8, !tbaa !7
  %25 = load ptr, ptr %10, align 8, !tbaa !7
  %26 = load i32, ptr %5, align 4, !tbaa !3
  call void @sat_solver_setnvars(ptr noundef %25, i32 noundef %26)
  store i32 0, ptr %8, align 4, !tbaa !3
  br label %27

27:                                               ; preds = %55, %1
  %28 = load i32, ptr %8, align 4, !tbaa !3
  %29 = load i32, ptr %4, align 4, !tbaa !3
  %30 = icmp slt i32 %28, %29
  br i1 %30, label %31, label %58

31:                                               ; preds = %27
  %32 = load ptr, ptr %10, align 8, !tbaa !7
  %33 = load i32, ptr %9, align 4, !tbaa !3
  %34 = load i32, ptr %8, align 4, !tbaa !3
  %35 = add nsw i32 %33, %34
  %36 = load i32, ptr %6, align 4, !tbaa !3
  %37 = load i32, ptr %8, align 4, !tbaa !3
  %38 = load i32, ptr %3, align 4, !tbaa !3
  %39 = srem i32 %37, %38
  %40 = add nsw i32 %36, %39
  %41 = load i32, ptr %7, align 4, !tbaa !3
  %42 = load i32, ptr %8, align 4, !tbaa !3
  %43 = load i32, ptr %3, align 4, !tbaa !3
  %44 = sdiv i32 %42, %43
  %45 = mul nsw i32 2, %44
  %46 = add nsw i32 %41, %45
  %47 = add nsw i32 %46, 1
  %48 = load i32, ptr %7, align 4, !tbaa !3
  %49 = load i32, ptr %8, align 4, !tbaa !3
  %50 = load i32, ptr %3, align 4, !tbaa !3
  %51 = sdiv i32 %49, %50
  %52 = mul nsw i32 2, %51
  %53 = add nsw i32 %48, %52
  %54 = call i32 @sat_solver_add_mux(ptr noundef %32, i32 noundef %35, i32 noundef %40, i32 noundef %47, i32 noundef %53, i32 noundef 0, i32 noundef 0, i32 noundef 0, i32 noundef 0)
  br label %55

55:                                               ; preds = %31
  %56 = load i32, ptr %8, align 4, !tbaa !3
  %57 = add nsw i32 %56, 1
  store i32 %57, ptr %8, align 4, !tbaa !3
  br label %27, !llvm.loop !10

58:                                               ; preds = %27
  %59 = load ptr, ptr %10, align 8, !tbaa !7
  call void @llvm.lifetime.end.p0(i64 8, ptr %10) #7
  call void @llvm.lifetime.end.p0(i64 4, ptr %9) #7
  call void @llvm.lifetime.end.p0(i64 4, ptr %8) #7
  call void @llvm.lifetime.end.p0(i64 4, ptr %7) #7
  call void @llvm.lifetime.end.p0(i64 4, ptr %6) #7
  call void @llvm.lifetime.end.p0(i64 4, ptr %5) #7
  call void @llvm.lifetime.end.p0(i64 4, ptr %4) #7
  call void @llvm.lifetime.end.p0(i64 4, ptr %3) #7
  ret ptr %59
}