; Function Attrs: nounwind uwtable
define noundef ptr @If_ManSatBuildXY(i32 noundef %0) local_unnamed_addr #0 {
  %2 = alloca [3 x i32], align 4
  %3 = shl nuw i32 1, %0
  %4 = shl nsw i32 %0, 1
  %5 = add nsw i32 %4, -1
  %6 = shl nuw i32 1, %5
  %7 = shl i32 2, %0
  %8 = add nsw i32 %6, %7
  %9 = tail call ptr @sat_solver_new() #10
  tail call void @sat_solver_setnvars(ptr noundef %9, i32 noundef %8) #10
  %.not = icmp eq i32 %5, 31
  br i1 %.not, label %._crit_edge, label %.lr.ph

.lr.ph:                                           ; preds = %1
  %10 = getelementptr inbounds nuw i8, ptr %2, i64 4
  %11 = getelementptr inbounds nuw i8, ptr %2, i64 8
  %12 = getelementptr inbounds nuw i8, ptr %2, i64 12
  %smax = tail call i32 @llvm.smax.i32(i32 %6, i32 1)
  %13 = shl i32 2, %0
  br label %14

14:                                               ; preds = %.lr.ph, %14
  %.023 = phi i32 [ 0, %.lr.ph ], [ %33, %14 ]
  %15 = add nuw nsw i32 %.023, %7
  %16 = srem i32 %.023, %3
  %17 = lshr i32 %.023, %0
  call void @llvm.lifetime.start.p0(i64 12, ptr nonnull %2) #10
  %18 = shl nuw nsw i32 %16, 1
  %19 = or disjoint i32 %18, 1
  store i32 %19, ptr %2, align 4, !tbaa !3
  %20 = shl i32 %17, 2
  %21 = add i32 %20, %13
  %22 = add i32 %21, 2
  %23 = or disjoint i32 %22, 1
  store i32 %23, ptr %10, align 4, !tbaa !3
  %24 = shl nsw i32 %15, 1
  store i32 %24, ptr %11, align 4, !tbaa !3
  %25 = call i32 @sat_solver_addclause(ptr noundef %9, ptr noundef nonnull %2, ptr noundef nonnull %12) #10
  store i32 %19, ptr %2, align 4, !tbaa !3
  store i32 %22, ptr %10, align 4, !tbaa !3
  %26 = or disjoint i32 %24, 1
  store i32 %26, ptr %11, align 4, !tbaa !3
  %27 = call i32 @sat_solver_addclause(ptr noundef %9, ptr noundef nonnull %2, ptr noundef nonnull %12) #10
  store i32 %18, ptr %2, align 4, !tbaa !3
  %28 = or disjoint i32 %21, 1
  store i32 %28, ptr %10, align 4, !tbaa !3
  store i32 %24, ptr %11, align 4, !tbaa !3
  %29 = call i32 @sat_solver_addclause(ptr noundef %9, ptr noundef nonnull %2, ptr noundef nonnull %12) #10
  store i32 %18, ptr %2, align 4, !tbaa !3
  store i32 %21, ptr %10, align 4, !tbaa !3
  store i32 %26, ptr %11, align 4, !tbaa !3
  %30 = call i32 @sat_solver_addclause(ptr noundef %9, ptr noundef nonnull %2, ptr noundef nonnull %12) #10
  store i32 %22, ptr %2, align 4, !tbaa !3
  store i32 %21, ptr %10, align 4, !tbaa !3
  store i32 %26, ptr %11, align 4, !tbaa !3
  %31 = call i32 @sat_solver_addclause(ptr noundef %9, ptr noundef nonnull %2, ptr noundef nonnull %12) #10
  store i32 %23, ptr %2, align 4, !tbaa !3
  store i32 %28, ptr %10, align 4, !tbaa !3
  store i32 %24, ptr %11, align 4, !tbaa !3
  %32 = call i32 @sat_solver_addclause(ptr noundef %9, ptr noundef nonnull %2, ptr noundef nonnull %12) #10
  call void @llvm.lifetime.end.p0(i64 12, ptr nonnull %2) #10
  %33 = add nuw nsw i32 %.023, 1
  %exitcond.not = icmp eq i32 %33, %smax
  br i1 %exitcond.not, label %._crit_edge, label %14, !llvm.loop !7

._crit_edge:                                      ; preds = %14, %1
  ret ptr %9
}